; ModuleID = '56/909.c'
source_filename = "56/909.c"
target datalayout = "e-m:e-p270:32:32-p271:32:32-p272:64:64-i64:64-f80:128-n8:16:32:64-S128"
target triple = "x86_64-pc-linux-gnu"

@.str = private unnamed_addr constant [3 x i8] c"%c\00", align 1

; Function Attrs: noinline nounwind uwtable
define dso_local i32 @main() #0 {
  %1 = alloca i32, align 4
  %2 = alloca i32, align 4
  %3 = alloca i32, align 4
  %4 = alloca i32, align 4
  %5 = alloca i32, align 4
  %6 = alloca i32, align 4
  %7 = alloca i8, align 1
  %8 = alloca [10 x i8], align 1
  %9 = alloca [10 x i8], align 1
  store i32 0, i32* %1, align 4
  %10 = bitcast [10 x i8]* %8 to i8*
  call void @llvm.memset.p0i8.i64(i8* align 1 %10, i8 0, i64 10, i1 false)
  %11 = bitcast [10 x i8]* %9 to i8*
  call void @llvm.memset.p0i8.i64(i8* align 1 %11, i8 0, i64 10, i1 false)
  store i32 0, i32* %4, align 4
  br label %12

12:                                               ; preds = %29, %0
  %13 = call i32 @getchar()
  %14 = trunc i32 %13 to i8
  store i8 %14, i8* %7, align 1
  %15 = load i8, i8* %7, align 1
  %16 = sext i8 %15 to i32
  %17 = icmp eq i32 %16, 10
  br i1 %17, label %18, label %19

18:                                               ; preds = %12
  br label %32

19:                                               ; preds = %12
  %20 = load i8, i8* %7, align 1
  %21 = sext i8 %20 to i32
  %22 = icmp ne i32 %21, 10
  br i1 %22, label %23, label %28

23:                                               ; preds = %19
  %24 = load i8, i8* %7, align 1
  %25 = load i32, i32* %4, align 4
  %26 = sext i32 %25 to i64
  %27 = getelementptr inbounds [10 x i8], [10 x i8]* %8, i64 0, i64 %26
  store i8 %24, i8* %27, align 1
  br label %28

28:                                               ; preds = %23, %19
  br label %29

29:                                               ; preds = %28
  %30 = load i32, i32* %4, align 4
  %31 = add nsw i32 %30, 1
  store i32 %31, i32* %4, align 4
  br label %12

32:                                               ; preds = %18
  store i32 0, i32* %6, align 4
  br label %33

33:                                               ; preds = %48, %32
  %34 = load i32, i32* %6, align 4
  %35 = load i32, i32* %4, align 4
  %36 = icmp slt i32 %34, %35
  br i1 %36, label %37, label %51

37:                                               ; preds = %33
  %38 = load i32, i32* %4, align 4
  %39 = sub nsw i32 %38, 1
  %40 = load i32, i32* %6, align 4
  %41 = sub nsw i32 %39, %40
  %42 = sext i32 %41 to i64
  %43 = getelementptr inbounds [10 x i8], [10 x i8]* %8, i64 0, i64 %42
  %44 = load i8, i8* %43, align 1
  %45 = load i32, i32* %6, align 4
  %46 = sext i32 %45 to i64
  %47 = getelementptr inbounds [10 x i8], [10 x i8]* %9, i64 0, i64 %46
  store i8 %44, i8* %47, align 1
  br label %48

48:                                               ; preds = %37
  %49 = load i32, i32* %6, align 4
  %50 = add nsw i32 %49, 1
  store i32 %50, i32* %6, align 4
  br label %33

51:                                               ; preds = %33
  store i32 0, i32* %6, align 4
  br label %52

52:                                               ; preds = %63, %51
  %53 = load i32, i32* %6, align 4
  %54 = load i32, i32* %4, align 4
  %55 = icmp slt i32 %53, %54
  br i1 %55, label %56, label %66

56:                                               ; preds = %52
  %57 = load i32, i32* %6, align 4
  %58 = sext i32 %57 to i64
  %59 = getelementptr inbounds [10 x i8], [10 x i8]* %9, i64 0, i64 %58
  %60 = load i8, i8* %59, align 1
  %61 = sext i8 %60 to i32
  %62 = call i32 (i8*, ...) @printf(i8* getelementptr inbounds ([3 x i8], [3 x i8]* @.str, i64 0, i64 0), i32 %61)
  br label %63

63:                                               ; preds = %56
  %64 = load i32, i32* %6, align 4
  %65 = add nsw i32 %64, 1
  store i32 %65, i32* %6, align 4
  br label %52

66:                                               ; preds = %52
  ret i32 0
}

; Function Attrs: argmemonly nounwind willreturn
declare void @llvm.memset.p0i8.i64(i8* nocapture writeonly, i8, i64, i1 immarg) #1

declare dso_local i32 @getchar() #2

declare dso_local i32 @printf(i8*, ...) #2


!llvm.module.flags = !{!0}
!llvm.ident = !{!1}

!0 = !{i32 1, !"wchar_size", i32 4}
!1 = !{!"clang version 10.0.0-4ubuntu1 "}
